target datalayout = "e-m:e-p270:32:32-p271:32:32-p272:64:64-i64:64-i128:128-f80:128-n8:16:32:64-S128"
target triple = "x86_64-pc-linux-gnu"

%struct.VLCInitState = type { ptr, i32 }

@__const.ccitt_unpack_init.state = private unnamed_addr constant { ptr, i32, [4 x i8] } { ptr @ccitt_group3_2d_vlc, i32 1688, [4 x i8] zeroinitializer }, align 8
@ccitt_group3_2d_lens = internal constant [11 x i8] c"\04\03\07\06\03\01\03\06\07\07\09", align 1
@ccitt_group3_2d_bits = internal constant [11 x i8] c"\01\01\02\02\02\01\03\03\03\01\01", align 1
@ccitt_vlc = internal global [2 x ptr] zeroinitializer, align 16

; Function Attrs: inlinehint nounwind uwtable
define internal ptr @ff_vlc_init_tables(ptr noundef %0, i32 noundef %1, i32 noundef %2, ptr noundef %3, i32 noundef %4, i32 noundef %5, ptr noundef %6, i32 noundef %7, i32 noundef %8, i32 noundef %9) #4 {
  %11 = alloca ptr, align 8
  %12 = alloca i32, align 4
  %13 = alloca i32, align 4
  %14 = alloca ptr, align 8
  %15 = alloca i32, align 4
  %16 = alloca i32, align 4
  %17 = alloca ptr, align 8
  %18 = alloca i32, align 4
  %19 = alloca i32, align 4
  %20 = alloca i32, align 4
  store ptr %0, ptr %11, align 8, !tbaa !51
  store i32 %1, ptr %12, align 4, !tbaa !4
  store i32 %2, ptr %13, align 4, !tbaa !4
  store ptr %3, ptr %14, align 8, !tbaa !53
  store i32 %4, ptr %15, align 4, !tbaa !4
  store i32 %5, ptr %16, align 4, !tbaa !4
  store ptr %6, ptr %17, align 8, !tbaa !53
  store i32 %7, ptr %18, align 4, !tbaa !4
  store i32 %8, ptr %19, align 4, !tbaa !4
  store i32 %9, ptr %20, align 4, !tbaa !4
  %21 = load ptr, ptr %11, align 8, !tbaa !51
  %22 = load i32, ptr %12, align 4, !tbaa !4
  %23 = load i32, ptr %13, align 4, !tbaa !4
  %24 = load ptr, ptr %14, align 8, !tbaa !53
  %25 = load i32, ptr %15, align 4, !tbaa !4
  %26 = load i32, ptr %16, align 4, !tbaa !4
  %27 = load ptr, ptr %17, align 8, !tbaa !53
  %28 = load i32, ptr %18, align 4, !tbaa !4
  %29 = load i32, ptr %19, align 4, !tbaa !4
  %30 = load i32, ptr %20, align 4, !tbaa !4
  %31 = call ptr @ff_vlc_init_tables_sparse(ptr noundef %21, i32 noundef %22, i32 noundef %23, ptr noundef %24, i32 noundef %25, i32 noundef %26, ptr noundef %27, i32 noundef %28, i32 noundef %29, ptr noundef null, i32 noundef 0, i32 noundef 0, i32 noundef %30)
  ret ptr %31
}

; Function Attrs: cold nounwind optsize uwtable
define internal void @ccitt_unpack_init() #0 {
  %1 = alloca %struct.VLCInitState, align 8
  %2 = alloca i32, align 4
  call void @llvm.lifetime.start.p0(i64 16, ptr %1) #9
  call void @llvm.memcpy.p0.p0.i64(ptr align 8 %1, ptr align 8 @__const.ccitt_unpack_init.state, i64 16, i1 false)
  call void @llvm.lifetime.start.p0(i64 4, ptr %2) #9
  %3 = call ptr @ff_vlc_init_tables(ptr noundef %1, i32 noundef 9, i32 noundef 11, ptr noundef @ccitt_group3_2d_lens, i32 noundef 1, i32 noundef 1, ptr noundef @ccitt_group3_2d_bits, i32 noundef 1, i32 noundef 1, i32 noundef 0)
  store i32 0, ptr %2, align 4, !tbaa !4
  br label %4

4:                                                ; preds = %20, %0
  %5 = load i32, ptr %2, align 4, !tbaa !4
  %6 = icmp slt i32 %5, 2
  br i1 %6, label %7, label %23

7:                                                ; preds = %4
  %8 = load i32, ptr %2, align 4, !tbaa !4
  %9 = sext i32 %8 to i64
  %10 = getelementptr inbounds [2 x [104 x i8]], ptr @ccitt_codes_lens, i64 0, i64 %9
  %11 = getelementptr inbounds [104 x i8], ptr %10, i64 0, i64 0
  %12 = load i32, ptr %2, align 4, !tbaa !4
  %13 = sext i32 %12 to i64
  %14 = getelementptr inbounds [2 x [104 x i8]], ptr @ccitt_codes_bits, i64 0, i64 %13
  %15 = getelementptr inbounds [104 x i8], ptr %14, i64 0, i64 0
  %16 = call ptr @ff_vlc_init_tables_sparse(ptr noundef %1, i32 noundef 9, i32 noundef 104, ptr noundef %11, i32 noundef 1, i32 noundef 1, ptr noundef %15, i32 noundef 1, i32 noundef 1, ptr noundef @ccitt_syms, i32 noundef 2, i32 noundef 2, i32 noundef 0)
  %17 = load i32, ptr %2, align 4, !tbaa !4
  %18 = sext i32 %17 to i64
  %19 = getelementptr inbounds [2 x ptr], ptr @ccitt_vlc, i64 0, i64 %18
  store ptr %16, ptr %19, align 8, !tbaa !8
  br label %20

20:                                               ; preds = %7
  %21 = load i32, ptr %2, align 4, !tbaa !4
  %22 = add nsw i32 %21, 1
  store i32 %22, ptr %2, align 4, !tbaa !4
  br label %4, !llvm.loop !11

23:                                               ; preds = %4
  call void @llvm.lifetime.end.p0(i64 4, ptr %2) #9
  call void @llvm.lifetime.end.p0(i64 16, ptr %1) #9
  ret void
}