; Function Attrs: cold nounwind optsize uwtable
define internal void @ccitt_unpack_init() #0 {
.critedge:
  %0 = alloca %struct.VLCInitState, align 8
  call void @llvm.lifetime.start.p0(i64 16, ptr nonnull %0) #7
  call void @llvm.memcpy.p0.p0.i64(ptr noundef nonnull align 8 dereferenceable(16) %0, ptr noundef nonnull align 8 dereferenceable(16) @__const.ccitt_unpack_init.state, i64 16, i1 false)
  %1 = call ptr @ff_vlc_init_tables_sparse(ptr noundef nonnull %0, i32 noundef 9, i32 noundef 11, ptr noundef nonnull @ccitt_group3_2d_lens, i32 noundef 1, i32 noundef 1, ptr noundef nonnull @ccitt_group3_2d_bits, i32 noundef 1, i32 noundef 1, ptr noundef null, i32 noundef 0, i32 noundef 0, i32 noundef 0) #7
  %2 = call ptr @ff_vlc_init_tables_sparse(ptr noundef nonnull %0, i32 noundef 9, i32 noundef 104, ptr noundef nonnull @ccitt_codes_lens, i32 noundef 1, i32 noundef 1, ptr noundef nonnull @ccitt_codes_bits, i32 noundef 1, i32 noundef 1, ptr noundef nonnull @ccitt_syms, i32 noundef 2, i32 noundef 2, i32 noundef 0) #7
  store ptr %2, ptr @ccitt_vlc, align 16, !tbaa !4
  %3 = call ptr @ff_vlc_init_tables_sparse(ptr noundef nonnull %0, i32 noundef 9, i32 noundef 104, ptr noundef nonnull getelementptr inbounds nuw (i8, ptr @ccitt_codes_lens, i64 104), i32 noundef 1, i32 noundef 1, ptr noundef nonnull getelementptr inbounds nuw (i8, ptr @ccitt_codes_bits, i64 104), i32 noundef 1, i32 noundef 1, ptr noundef nonnull @ccitt_syms, i32 noundef 2, i32 noundef 2, i32 noundef 0) #7
  store ptr %3, ptr getelementptr inbounds nuw (i8, ptr @ccitt_vlc, i64 8), align 8, !tbaa !4
  call void @llvm.lifetime.end.p0(i64 16, ptr nonnull %0) #7
  ret void
}